target datalayout = "e-m:e-p270:32:32-p271:32:32-p272:64:64-i64:64-i128:128-f80:128-n8:16:32:64-S128"
target triple = "x86_64-pc-linux-gnu"

%struct.lv_calendar_date_t = type { i16, i8, i8 }

@.str.3 = private unnamed_addr constant [6 x i8] c"%d %s\00", align 1
@month_names_def = internal global [12 x ptr] [ptr @.str.4, ptr @.str.5, ptr @.str.6, ptr @.str.7, ptr @.str.8, ptr @.str.9, ptr @.str.10, ptr @.str.11, ptr @.str.12, ptr @.str.13, ptr @.str.14, ptr @.str.15], align 16

; Function Attrs: nounwind uwtable
define internal void @month_event_cb(ptr noundef %0) #0 {
  %2 = alloca ptr, align 8
  %3 = alloca ptr, align 8
  %4 = alloca ptr, align 8
  %5 = alloca ptr, align 8
  %6 = alloca ptr, align 8
  %7 = alloca %struct.lv_calendar_date_t, align 2
  %8 = alloca ptr, align 8
  store ptr %0, ptr %2, align 8, !tbaa !3
  call void @llvm.lifetime.start.p0(i64 8, ptr %3) #4
  %9 = load ptr, ptr %2, align 8, !tbaa !3
  %10 = call ptr @lv_event_get_current_target(ptr noundef %9)
  store ptr %10, ptr %3, align 8, !tbaa !3
  call void @llvm.lifetime.start.p0(i64 8, ptr %4) #4
  %11 = load ptr, ptr %3, align 8, !tbaa !3
  %12 = call ptr @lv_obj_get_parent(ptr noundef %11)
  store ptr %12, ptr %4, align 8, !tbaa !3
  call void @llvm.lifetime.start.p0(i64 8, ptr %5) #4
  %13 = load ptr, ptr %4, align 8, !tbaa !3
  %14 = call ptr @lv_obj_get_parent(ptr noundef %13)
  store ptr %14, ptr %5, align 8, !tbaa !3
  call void @llvm.lifetime.start.p0(i64 8, ptr %6) #4
  %15 = load ptr, ptr %5, align 8, !tbaa !3
  %16 = call ptr @lv_calendar_get_showed_date(ptr noundef %15)
  store ptr %16, ptr %6, align 8, !tbaa !3
  call void @llvm.lifetime.start.p0(i64 4, ptr %7) #4
  %17 = load ptr, ptr %6, align 8, !tbaa !3
  call void @llvm.memcpy.p0.p0.i64(ptr align 2 %7, ptr align 2 %17, i64 4, i1 false), !tbaa.struct !9
  br label %18

18:                                               ; preds = %1
  %19 = getelementptr inbounds nuw %struct.lv_calendar_date_t, ptr %7, i32 0, i32 0
  %20 = load i16, ptr %19, align 2, !tbaa !13
  %21 = zext i16 %20 to i32
  %22 = icmp sge i32 %21, 0
  br i1 %22, label %23, label %33

23:                                               ; preds = %18
  %24 = getelementptr inbounds nuw %struct.lv_calendar_date_t, ptr %7, i32 0, i32 1
  %25 = load i8, ptr %24, align 2, !tbaa !15
  %26 = sext i8 %25 to i32
  %27 = icmp sge i32 %26, 1
  br i1 %27, label %28, label %33

28:                                               ; preds = %23
  %29 = getelementptr inbounds nuw %struct.lv_calendar_date_t, ptr %7, i32 0, i32 1
  %30 = load i8, ptr %29, align 2, !tbaa !15
  %31 = sext i8 %30 to i32
  %32 = icmp sle i32 %31, 12
  br i1 %32, label %39, label %33

33:                                               ; preds = %28, %23, %18
  br label %34

34:                                               ; preds = %33
  br label %35

35:                                               ; preds = %34
  br label %36

36:                                               ; preds = %35
  br label %37

37:                                               ; preds = %38, %36
  br label %38

38:                                               ; preds = %37
  br label %37

39:                                               ; preds = %28
  br label %40

40:                                               ; preds = %39
  br label %41

41:                                               ; preds = %40
  %42 = load ptr, ptr %4, align 8, !tbaa !3
  %43 = call ptr @lv_obj_get_child(ptr noundef %42, i32 noundef 0)
  %44 = load ptr, ptr %3, align 8, !tbaa !3
  %45 = icmp eq ptr %43, %44
  br i1 %45, label %46, label %61

46:                                               ; preds = %41
  %47 = getelementptr inbounds nuw %struct.lv_calendar_date_t, ptr %7, i32 0, i32 1
  %48 = load i8, ptr %47, align 2, !tbaa !15
  %49 = sext i8 %48 to i32
  %50 = icmp eq i32 %49, 1
  br i1 %50, label %51, label %56

51:                                               ; preds = %46
  %52 = getelementptr inbounds nuw %struct.lv_calendar_date_t, ptr %7, i32 0, i32 1
  store i8 12, ptr %52, align 2, !tbaa !15
  %53 = getelementptr inbounds nuw %struct.lv_calendar_date_t, ptr %7, i32 0, i32 0
  %54 = load i16, ptr %53, align 2, !tbaa !13
  %55 = add i16 %54, -1
  store i16 %55, ptr %53, align 2, !tbaa !13
  br label %60

56:                                               ; preds = %46
  %57 = getelementptr inbounds nuw %struct.lv_calendar_date_t, ptr %7, i32 0, i32 1
  %58 = load i8, ptr %57, align 2, !tbaa !15
  %59 = add i8 %58, -1
  store i8 %59, ptr %57, align 2, !tbaa !15
  br label %60

60:                                               ; preds = %56, %51
  br label %76

61:                                               ; preds = %41
  %62 = getelementptr inbounds nuw %struct.lv_calendar_date_t, ptr %7, i32 0, i32 1
  %63 = load i8, ptr %62, align 2, !tbaa !15
  %64 = sext i8 %63 to i32
  %65 = icmp eq i32 %64, 12
  br i1 %65, label %66, label %71

66:                                               ; preds = %61
  %67 = getelementptr inbounds nuw %struct.lv_calendar_date_t, ptr %7, i32 0, i32 1
  store i8 1, ptr %67, align 2, !tbaa !15
  %68 = getelementptr inbounds nuw %struct.lv_calendar_date_t, ptr %7, i32 0, i32 0
  %69 = load i16, ptr %68, align 2, !tbaa !13
  %70 = add i16 %69, 1
  store i16 %70, ptr %68, align 2, !tbaa !13
  br label %75

71:                                               ; preds = %61
  %72 = getelementptr inbounds nuw %struct.lv_calendar_date_t, ptr %7, i32 0, i32 1
  %73 = load i8, ptr %72, align 2, !tbaa !15
  %74 = add i8 %73, 1
  store i8 %74, ptr %72, align 2, !tbaa !15
  br label %75

75:                                               ; preds = %71, %66
  br label %76

76:                                               ; preds = %75, %60
  %77 = load ptr, ptr %5, align 8, !tbaa !3
  %78 = getelementptr inbounds nuw %struct.lv_calendar_date_t, ptr %7, i32 0, i32 0
  %79 = load i16, ptr %78, align 2, !tbaa !13
  %80 = zext i16 %79 to i32
  %81 = getelementptr inbounds nuw %struct.lv_calendar_date_t, ptr %7, i32 0, i32 1
  %82 = load i8, ptr %81, align 2, !tbaa !15
  %83 = sext i8 %82 to i32
  call void @lv_calendar_set_showed_date(ptr noundef %77, i32 noundef %80, i32 noundef %83)
  call void @llvm.lifetime.start.p0(i64 8, ptr %8) #4
  %84 = load ptr, ptr %4, align 8, !tbaa !3
  %85 = call ptr @lv_obj_get_child(ptr noundef %84, i32 noundef 1)
  store ptr %85, ptr %8, align 8, !tbaa !3
  %86 = load ptr, ptr %8, align 8, !tbaa !3
  %87 = getelementptr inbounds nuw %struct.lv_calendar_date_t, ptr %7, i32 0, i32 0
  %88 = load i16, ptr %87, align 2, !tbaa !13
  %89 = zext i16 %88 to i32
  %90 = getelementptr inbounds nuw %struct.lv_calendar_date_t, ptr %7, i32 0, i32 1
  %91 = load i8, ptr %90, align 2, !tbaa !15
  %92 = sext i8 %91 to i32
  %93 = sub nsw i32 %92, 1
  %94 = sext i32 %93 to i64
  %95 = getelementptr inbounds [12 x ptr], ptr @month_names_def, i64 0, i64 %94
  %96 = load ptr, ptr %95, align 8, !tbaa !3
  call void (ptr, ptr, ...) @lv_label_set_text_fmt(ptr noundef %86, ptr noundef @.str.3, i32 noundef %89, ptr noundef %96)
  call void @llvm.lifetime.end.p0(i64 8, ptr %8) #4
  call void @llvm.lifetime.end.p0(i64 4, ptr %7) #4
  call void @llvm.lifetime.end.p0(i64 8, ptr %6) #4
  call void @llvm.lifetime.end.p0(i64 8, ptr %5) #4
  call void @llvm.lifetime.end.p0(i64 8, ptr %4) #4
  call void @llvm.lifetime.end.p0(i64 8, ptr %3) #4
  ret void
}