; Function Attrs: nounwind uwtable
define internal void @month_event_cb(ptr noundef %0) #0 {
  %2 = tail call ptr @lv_event_get_current_target(ptr noundef %0) #2
  %3 = tail call ptr @lv_obj_get_parent(ptr noundef %2) #2
  %4 = tail call ptr @lv_obj_get_parent(ptr noundef %3) #2
  %5 = tail call ptr @lv_calendar_get_showed_date(ptr noundef %4) #2
  %.sroa.0.0.copyload = load i16, ptr %5, align 2, !tbaa !3
  %.sroa.10.0..sroa_idx = getelementptr inbounds i8, ptr %5, i64 2
  %.sroa.10.0.copyload = load i8, ptr %.sroa.10.0..sroa_idx, align 2, !tbaa !7
  %6 = add i8 %.sroa.10.0.copyload, -1
  %or.cond7 = icmp ult i8 %6, 12
  br i1 %or.cond7, label %7, label %.preheader

.preheader:                                       ; preds = %1, %.preheader
  br label %.preheader

7:                                                ; preds = %1
  %8 = tail call ptr @lv_obj_get_child(ptr noundef %3, i32 noundef 0) #2
  %9 = icmp eq ptr %8, %2
  br i1 %9, label %10, label %13

10:                                               ; preds = %7
  %11 = icmp eq i8 %.sroa.10.0.copyload, 1
  %12 = sext i1 %11 to i16
  %spec.select = add i16 %.sroa.0.0.copyload, %12
  %spec.select28 = select i1 %11, i8 12, i8 %6
  br label %19

13:                                               ; preds = %7
  %14 = icmp eq i8 %.sroa.10.0.copyload, 12
  br i1 %14, label %15, label %17

15:                                               ; preds = %13
  %16 = add i16 %.sroa.0.0.copyload, 1
  br label %19

17:                                               ; preds = %13
  %18 = add nuw nsw i8 %.sroa.10.0.copyload, 1
  br label %19

19:                                               ; preds = %10, %15, %17
  %.sroa.0.0 = phi i16 [ %16, %15 ], [ %.sroa.0.0.copyload, %17 ], [ %spec.select, %10 ]
  %.sroa.10.0 = phi i8 [ 1, %15 ], [ %18, %17 ], [ %spec.select28, %10 ]
  %20 = zext i16 %.sroa.0.0 to i32
  %21 = zext nneg i8 %.sroa.10.0 to i32
  tail call void @lv_calendar_set_showed_date(ptr noundef %4, i32 noundef %20, i32 noundef %21) #2
  %22 = tail call ptr @lv_obj_get_child(ptr noundef %3, i32 noundef 1) #2
  %23 = add nsw i32 %21, -1
  %24 = zext nneg i32 %23 to i64
  %25 = getelementptr inbounds [12 x ptr], ptr @month_names_def, i64 0, i64 %24
  %26 = load ptr, ptr %25, align 8, !tbaa !8
  tail call void (ptr, ptr, ...) @lv_label_set_text_fmt(ptr noundef %22, ptr noundef nonnull @.str.3, i32 noundef %20, ptr noundef %26) #2
  ret void
}